Certificate:
    Data:
        Version: 3 (0x2)
        Serial Number: 3 (0x3)
        Signature Algorithm: ecdsa-with-SHA256
        Issuer: CN=10.99.0.10
        Validity
            Not Before: Aug  3 12:59:27 2025 GMT
            Not After : Aug  1 12:59:27 2035 GMT
        Subject: CN=testuser2
        Subject Public Key Info:
            Public Key Algorithm: id-ecPublicKey
                Public-Key: (384 bit)
                pub:
                    04:88:ed:fc:6d:44:0e:5f:f4:73:13:51:6c:58:cf:
                    3f:97:c6:b3:3f:c5:12:fe:40:0a:cf:ff:46:da:73:
                    9a:34:bd:c1:b8:e6:7f:21:d5:ad:39:37:7b:0f:c0:
                    cc:00:17:5c:2a:3e:3a:cf:42:7d:72:7e:2b:82:82:
                    9d:19:a2:25:e7:0e:3c:b7:67:66:84:15:89:8e:66:
                    4d:c7:d5:be:00:e9:75:f3:43:c6:94:c9:c8:3a:b1:
                    d1:e7:c0:19:d4:a7:e1
                ASN1 OID: secp384r1
                NIST CURVE: P-384
        X509v3 extensions:
            X509v3 Basic Constraints: 
                CA:FALSE
            X509v3 Subject Key Identifier: 
                08:4E:A2:3F:07:36:D6:DD:91:11:4B:43:CF:0E:75:68:BF:49:AC:A2
            X509v3 Authority Key Identifier: 
                keyid:BF:FE:69:38:63:80:19:E9:D6:5D:38:1D:23:E7:61:8C:AF:4A:E8:AD
                DirName:/CN=10.99.0.10
                serial:61:0F:7D:60:6B:04:EE:30:EB:0E:AF:77:59:34:D6:32:46:8C:EC:85
            X509v3 Extended Key Usage: 
                TLS Web Server Authentication, TLS Web Client Authentication, ipsec Internet Key Exchange
            X509v3 Key Usage: 
                Digital Signature, Key Encipherment
            X509v3 Subject Alternative Name: 
                email:testuser2@9546d574-3fd6-58f4-9ac6-2c69cb755db7.algo
    Signature Algorithm: ecdsa-with-SHA256
    Signature Value:
        30:64:02:30:60:16:23:85:91:fc:40:f6:10:bc:5a:08:91:77:
        30:5d:11:30:ac:8f:c7:6d:87:fd:b2:a0:c1:21:d6:2b:31:7e:
        68:0e:b1:a1:86:91:0c:5b:b7:f5:a1:67:e8:11:2f:14:02:30:
        62:f9:35:64:44:2b:c9:28:67:35:61:20:1e:2c:b2:25:cb:88:
        1e:8c:d7:b6:6d:0f:aa:3d:62:3f:20:87:d6:86:36:25:5e:2a:
        27:3a:2a:5e:97:0c:f8:8a:95:f6:b5:72
-----BEGIN CERTIFICATE-----
MIICSjCCAdGgAwIBAgIBAzAKBggqhkjOPQQDAjAVMRMwEQYDVQQDDAoxMC45OS4w
LjEwMB4XDTI1MDgwMzEyNTkyN1oXDTM1MDgwMTEyNTkyN1owFDESMBAGA1UEAwwJ
dGVzdHVzZXIyMHYwEAYHKoZIzj0CAQYFK4EEACIDYgAEiO38bUQOX/RzE1FsWM8/
l8azP8US/kAKz/9G2nOaNL3BuOZ/IdWtOTd7D8DMABdcKj46z0J9cn4rgoKdGaIl
5w48t2dmhBWJjmZNx9W+AOl180PGlMnIOrHR58AZ1Kfho4H1MIHyMAkGA1UdEwQC
MAAwHQYDVR0OBBYEFAhOoj8HNtbdkRFLQ88OdWi/SayiMFAGA1UdIwRJMEeAFL/+
aThjgBnp1l04HSPnYYyvSuitoRmkFzAVMRMwEQYDVQQDDAoxMC45OS4wLjEwghRh
D31gawTuMOsOr3dZNNYyRozshTAnBgNVHSUEIDAeBggrBgEFBQcDAQYIKwYBBQUH
AwIGCCsGAQUFBwMRMAsGA1UdDwQEAwIFoDA+BgNVHREENzA1gTN0ZXN0dXNlcjJA
OTU0NmQ1NzQtM2ZkNi01OGY0LTlhYzYtMmM2OWNiNzU1ZGI3LmFsZ28wCgYIKoZI
zj0EAwIDZwAwZAIwYBYjhZH8QPYQvFoIkXcwXREwrI/HbYf9sqDBIdYrMX5oDrGh
hpEMW7f1oWfoES8UAjBi+TVkRCvJKGc1YSAeLLIly4gejNe2bQ+qPWI/IIfWhjYl
XionOipelwz4ipX2tXI=
-----END CERTIFICATE-----
